target datalayout = "e-m:e-p270:32:32-p271:32:32-p272:64:64-i64:64-i128:128-f80:128-n8:16:32:64-S128"
target triple = "x86_64-pc-linux-gnu"

%struct.point_t = type { float, float }
%struct.dt_lut_t = type { ptr, ptr, ptr, ptr, ptr, ptr, ptr, ptr, ptr, ptr, ptr, ptr, ptr, ptr, ptr, ptr, ptr, %struct.image_t, %struct.image_t, ptr, ptr, ptr, ptr, ptr }
%struct.image_t = type { ptr, ptr, ptr, i32, i32, ptr, float, i32, i32, float, [4 x %struct.point_t], ptr, i32 }

; Function Attrs: nounwind uwtable
define internal void @collect_reference_patches_foreach(ptr noundef %0, ptr noundef %1, ptr noundef %2) #0 {
  %4 = alloca ptr, align 8
  %5 = alloca ptr, align 8
  %6 = alloca ptr, align 8
  %7 = alloca ptr, align 8
  %8 = alloca ptr, align 8
  %9 = alloca [4 x float], align 16
  store ptr %0, ptr %4, align 8, !tbaa !62
  store ptr %1, ptr %5, align 8, !tbaa !62
  store ptr %2, ptr %6, align 8, !tbaa !62
  call void @llvm.lifetime.start.p0(i64 8, ptr %7) #15
  %10 = load ptr, ptr %6, align 8, !tbaa !62
  store ptr %10, ptr %7, align 8, !tbaa !14
  call void @llvm.lifetime.start.p0(i64 8, ptr %8) #15
  %11 = load ptr, ptr %5, align 8, !tbaa !62
  store ptr %11, ptr %8, align 8, !tbaa !125
  call void @llvm.lifetime.start.p0(i64 16, ptr %9) #15
  %12 = load ptr, ptr %7, align 8, !tbaa !14
  %13 = getelementptr inbounds nuw %struct.dt_lut_t, ptr %12, i32 0, i32 18
  %14 = load ptr, ptr %7, align 8, !tbaa !14
  %15 = getelementptr inbounds nuw %struct.dt_lut_t, ptr %14, i32 0, i32 18
  %16 = getelementptr inbounds nuw %struct.image_t, ptr %15, i32 0, i32 9
  %17 = load float, ptr %16, align 4, !tbaa !81
  %18 = load ptr, ptr %8, align 8, !tbaa !125
  %19 = getelementptr inbounds [4 x float], ptr %9, i64 0, i64 0
  call void @get_xyz_sample_from_image(ptr noundef %13, float noundef %17, ptr noundef %18, ptr noundef %19)
  %20 = load ptr, ptr %8, align 8, !tbaa !125
  %21 = getelementptr inbounds [4 x float], ptr %9, i64 0, i64 0
  %22 = load float, ptr %21, align 16, !tbaa !60
  %23 = fpext reassoc nsz arcp contract afn float %22 to double
  %24 = fmul reassoc nsz arcp contract afn double %23, 1.000000e+02
  %25 = fptrunc reassoc nsz arcp contract afn double %24 to float
  %26 = getelementptr inbounds [4 x float], ptr %9, i64 0, i64 1
  %27 = load float, ptr %26, align 4, !tbaa !60
  %28 = fpext reassoc nsz arcp contract afn float %27 to double
  %29 = fmul reassoc nsz arcp contract afn double %28, 1.000000e+02
  %30 = fptrunc reassoc nsz arcp contract afn double %29 to float
  %31 = getelementptr inbounds [4 x float], ptr %9, i64 0, i64 2
  %32 = load float, ptr %31, align 8, !tbaa !60
  %33 = fpext reassoc nsz arcp contract afn float %32 to double
  %34 = fmul reassoc nsz arcp contract afn double %33, 1.000000e+02
  %35 = fptrunc reassoc nsz arcp contract afn double %34 to float
  call void @checker_set_color(ptr noundef %20, i32 noundef 5, float noundef %25, float noundef %30, float noundef %35)
  call void @llvm.lifetime.end.p0(i64 16, ptr %9) #15
  call void @llvm.lifetime.end.p0(i64 8, ptr %8) #15
  call void @llvm.lifetime.end.p0(i64 8, ptr %7) #15
  ret void
}