; Function Attrs: nounwind uwtable
define internal void @collect_reference_patches_foreach(ptr readnone captures(none) %0, ptr noundef %1, ptr noundef readonly captures(none) %2) #0 {
  %4 = alloca [4 x float], align 16
  call void @llvm.lifetime.start.p0(i64 16, ptr nonnull %4) #24
  %5 = getelementptr inbounds nuw i8, ptr %2, i64 240
  %6 = getelementptr inbounds nuw i8, ptr %2, i64 292
  %7 = load float, ptr %6, align 4, !tbaa !80
  call fastcc void @get_xyz_sample_from_image(ptr noundef nonnull %5, float noundef %7, ptr noundef %1, ptr noundef %4)
  %8 = load float, ptr %4, align 16, !tbaa !67
  %9 = fmul reassoc nsz arcp contract afn float %8, 1.000000e+02
  %10 = getelementptr inbounds nuw i8, ptr %4, i64 4
  %11 = load float, ptr %10, align 4, !tbaa !67
  %12 = fmul reassoc nsz arcp contract afn float %11, 1.000000e+02
  %13 = getelementptr inbounds nuw i8, ptr %4, i64 8
  %14 = load float, ptr %13, align 8, !tbaa !67
  %15 = fmul reassoc nsz arcp contract afn float %14, 1.000000e+02
  tail call void @checker_set_color(ptr noundef %1, i32 noundef 5, float noundef %9, float noundef %12, float noundef %15) #24
  call void @llvm.lifetime.end.p0(i64 16, ptr nonnull %4) #24
  ret void
}